; Function Attrs: mustprogress uwtable
define void @_ZN3zmq16null_mechanism_tC1EPNS_14session_base_tERKNSt7__cxx1112basic_stringIcSt11char_traitsIcESaIcEEERKNS_9options_tE(ptr noundef nonnull align 8 dereferenceable(1576) %0, ptr noundef %1, ptr noundef nonnull align 8 dereferenceable(32) %2, ptr noundef nonnull align 8 dereferenceable(1336) %3) unnamed_addr #0 align 2 personality ptr @__gxx_personality_v0 {
  %5 = getelementptr inbounds nuw i8, ptr %0, i64 80
  tail call void @_ZN3zmq16mechanism_base_tC2EPNS_14session_base_tERKNS_9options_tE(ptr noundef nonnull align 8 dereferenceable(1496) %5, ptr noundef %1, ptr noundef nonnull align 8 dereferenceable(1336) %3)
  invoke void @_ZN3zmq12zap_client_tC2EPNS_14session_base_tERKNSt7__cxx1112basic_stringIcSt11char_traitsIcESaIcEEERKNS_9options_tE(ptr noundef nonnull align 8 dereferenceable(72) %0, ptr noundef nonnull getelementptr inbounds nuw (i8, ptr @_ZTTN3zmq16null_mechanism_tE, i64 8), ptr noundef %1, ptr noundef nonnull align 8 dereferenceable(32) %2, ptr noundef nonnull align 8 dereferenceable(1336) %3)
          to label %6 unwind label %8

6:                                                ; preds = %4
  store ptr getelementptr inbounds nuw inrange(-24, 64) (i8, ptr @_ZTVN3zmq16null_mechanism_tE, i64 24), ptr %0, align 8, !tbaa !3
  store ptr getelementptr inbounds nuw inrange(-80, 72) (i8, ptr @_ZTVN3zmq16null_mechanism_tE, i64 168), ptr %5, align 8, !tbaa !3
  %7 = getelementptr inbounds nuw i8, ptr %0, i64 72
  tail call void @llvm.memset.p0.i64(ptr noundef nonnull align 8 dereferenceable(6) %7, i8 0, i64 6, i1 false)
  ret void

8:                                                ; preds = %4
  %9 = landingpad { ptr, i32 }
          cleanup
  tail call void @_ZN3zmq11mechanism_tD2Ev(ptr noundef nonnull align 8 dereferenceable(1496) %5) #18
  resume { ptr, i32 } %9
}